; Function Attrs: mustprogress nounwind uwtable
define void @_ZN2cv4gapi3own10ThreadPoolD2Ev(ptr noundef nonnull align 8 dereferenceable(248) %0) unnamed_addr #0 align 2 personality ptr @__gxx_personality_v0 {
  invoke void @_ZN2cv4gapi3own10ThreadPool8shutdownEv(ptr noundef nonnull align 8 dereferenceable(248) %0)
          to label %2 unwind label %13

2:                                                ; preds = %1
  %3 = getelementptr inbounds nuw i8, ptr %0, i64 24
  %4 = getelementptr inbounds nuw i8, ptr %0, i64 200
  tail call void @_ZNSt18condition_variableD1Ev(ptr noundef nonnull align 8 dereferenceable(48) %4) #16
  %5 = getelementptr inbounds nuw i8, ptr %0, i64 152
  tail call void @_ZNSt18condition_variableD1Ev(ptr noundef nonnull align 8 dereferenceable(48) %5) #16
  tail call void @_ZNSt5dequeISt8functionIFvvEESaIS2_EED2Ev(ptr noundef nonnull align 8 dereferenceable(224) %3) #16
  %6 = load ptr, ptr %0, align 8, !tbaa !25
  %7 = getelementptr inbounds nuw i8, ptr %0, i64 8
  %8 = load ptr, ptr %7, align 8, !tbaa !26
  %.not4.i.i.i.i = icmp eq ptr %6, %8
  br i1 %.not4.i.i.i.i, label %_ZSt8_DestroyIPSt6threadS0_EvT_S2_RSaIT0_E.exit.i, label %_ZSt8_DestroyISt6threadEvPT_.exit.i.i.i.i

9:                                                ; preds = %_ZSt8_DestroyISt6threadEvPT_.exit.i.i.i.i
  %10 = getelementptr inbounds nuw i8, ptr %.05.i.i.i.i, i64 8
  %.not.i.i.i.i = icmp eq ptr %10, %8
  br i1 %.not.i.i.i.i, label %_ZSt8_DestroyIPSt6threadS0_EvT_S2_RSaIT0_E.exit.i, label %_ZSt8_DestroyISt6threadEvPT_.exit.i.i.i.i, !llvm.loop !47

_ZSt8_DestroyISt6threadEvPT_.exit.i.i.i.i:        ; preds = %2, %9
  %.05.i.i.i.i = phi ptr [ %10, %9 ], [ %6, %2 ]
  %.sroa.0.0.copyload.i.i.i.i.i.i.i = load i64, ptr %.05.i.i.i.i, align 8, !tbaa !32
  %.not.i.i.i.i.i.i = icmp eq i64 %.sroa.0.0.copyload.i.i.i.i.i.i.i, 0
  br i1 %.not.i.i.i.i.i.i, label %9, label %11

11:                                               ; preds = %_ZSt8_DestroyISt6threadEvPT_.exit.i.i.i.i
  tail call void @_ZSt9terminatev() #20
  unreachable

_ZSt8_DestroyIPSt6threadS0_EvT_S2_RSaIT0_E.exit.i: ; preds = %9, %2
  %.not.i.i.i = icmp eq ptr %6, null
  br i1 %.not.i.i.i, label %_ZNSt6vectorISt6threadSaIS0_EED2Ev.exit, label %12

12:                                               ; preds = %_ZSt8_DestroyIPSt6threadS0_EvT_S2_RSaIT0_E.exit.i
  tail call void @_ZdlPv(ptr noundef nonnull %6) #19
  br label %_ZNSt6vectorISt6threadSaIS0_EED2Ev.exit

_ZNSt6vectorISt6threadSaIS0_EED2Ev.exit:          ; preds = %_ZSt8_DestroyIPSt6threadS0_EvT_S2_RSaIT0_E.exit.i, %12
  ret void

13:                                               ; preds = %1
  %14 = landingpad { ptr, i32 }
          catch ptr null
  %15 = extractvalue { ptr, i32 } %14, 0
  tail call void @__clang_call_terminate(ptr %15) #20
  unreachable
}